; ModuleID = '33/2123.c'
source_filename = "33/2123.c"
target datalayout = "e-m:e-p270:32:32-p271:32:32-p272:64:64-i64:64-f80:128-n8:16:32:64-S128"
target triple = "x86_64-pc-linux-gnu"

@.str = private unnamed_addr constant [3 x i8] c"%d\00", align 1
@.str.1 = private unnamed_addr constant [3 x i8] c"%s\00", align 1
@.str.2 = private unnamed_addr constant [4 x i8] c"%s\0A\00", align 1

; Function Attrs: noinline nounwind uwtable
define dso_local i32 @main() #0 {
  %1 = alloca i32, align 4
  %2 = alloca i32, align 4
  %3 = alloca i32, align 4
  %4 = alloca i32, align 4
  %5 = alloca [1000 x [256 x i8]], align 16
  store i32 0, i32* %1, align 4
  %6 = call i32 (i8*, ...) @__isoc99_scanf(i8* getelementptr inbounds ([3 x i8], [3 x i8]* @.str, i64 0, i64 0), i32* %2)
  store i32 0, i32* %3, align 4
  br label %7

7:                                                ; preds = %16, %0
  %8 = load i32, i32* %3, align 4
  %9 = load i32, i32* %2, align 4
  %10 = icmp slt i32 %8, %9
  br i1 %10, label %11, label %19

11:                                               ; preds = %7
  %12 = load i32, i32* %3, align 4
  %13 = sext i32 %12 to i64
  %14 = getelementptr inbounds [1000 x [256 x i8]], [1000 x [256 x i8]]* %5, i64 0, i64 %13
  %15 = call i32 (i8*, ...) @__isoc99_scanf(i8* getelementptr inbounds ([3 x i8], [3 x i8]* @.str.1, i64 0, i64 0), [256 x i8]* %14)
  br label %16

16:                                               ; preds = %11
  %17 = load i32, i32* %3, align 4
  %18 = add nsw i32 %17, 1
  store i32 %18, i32* %3, align 4
  br label %7

19:                                               ; preds = %7
  store i32 0, i32* %3, align 4
  br label %20

20:                                               ; preds = %77, %19
  %21 = load i32, i32* %3, align 4
  %22 = load i32, i32* %2, align 4
  %23 = icmp slt i32 %21, %22
  br i1 %23, label %24, label %80

24:                                               ; preds = %20
  store i32 0, i32* %4, align 4
  br label %25

25:                                               ; preds = %73, %24
  %26 = load i32, i32* %3, align 4
  %27 = sext i32 %26 to i64
  %28 = getelementptr inbounds [1000 x [256 x i8]], [1000 x [256 x i8]]* %5, i64 0, i64 %27
  %29 = load i32, i32* %4, align 4
  %30 = sext i32 %29 to i64
  %31 = getelementptr inbounds [256 x i8], [256 x i8]* %28, i64 0, i64 %30
  %32 = load i8, i8* %31, align 1
  %33 = sext i8 %32 to i32
  %34 = icmp ne i32 %33, 0
  br i1 %34, label %35, label %76

35:                                               ; preds = %25
  %36 = load i32, i32* %3, align 4
  %37 = sext i32 %36 to i64
  %38 = getelementptr inbounds [1000 x [256 x i8]], [1000 x [256 x i8]]* %5, i64 0, i64 %37
  %39 = load i32, i32* %4, align 4
  %40 = sext i32 %39 to i64
  %41 = getelementptr inbounds [256 x i8], [256 x i8]* %38, i64 0, i64 %40
  %42 = load i8, i8* %41, align 1
  %43 = sext i8 %42 to i32
  switch i32 %43, label %72 [
    i32 65, label %44
    i32 71, label %51
    i32 84, label %58
    i32 67, label %65
  ]

44:                                               ; preds = %35
  %45 = load i32, i32* %3, align 4
  %46 = sext i32 %45 to i64
  %47 = getelementptr inbounds [1000 x [256 x i8]], [1000 x [256 x i8]]* %5, i64 0, i64 %46
  %48 = load i32, i32* %4, align 4
  %49 = sext i32 %48 to i64
  %50 = getelementptr inbounds [256 x i8], [256 x i8]* %47, i64 0, i64 %49
  store i8 84, i8* %50, align 1
  br label %72

51:                                               ; preds = %35
  %52 = load i32, i32* %3, align 4
  %53 = sext i32 %52 to i64
  %54 = getelementptr inbounds [1000 x [256 x i8]], [1000 x [256 x i8]]* %5, i64 0, i64 %53
  %55 = load i32, i32* %4, align 4
  %56 = sext i32 %55 to i64
  %57 = getelementptr inbounds [256 x i8], [256 x i8]* %54, i64 0, i64 %56
  store i8 67, i8* %57, align 1
  br label %72

58:                                               ; preds = %35
  %59 = load i32, i32* %3, align 4
  %60 = sext i32 %59 to i64
  %61 = getelementptr inbounds [1000 x [256 x i8]], [1000 x [256 x i8]]* %5, i64 0, i64 %60
  %62 = load i32, i32* %4, align 4
  %63 = sext i32 %62 to i64
  %64 = getelementptr inbounds [256 x i8], [256 x i8]* %61, i64 0, i64 %63
  store i8 65, i8* %64, align 1
  br label %72

65:                                               ; preds = %35
  %66 = load i32, i32* %3, align 4
  %67 = sext i32 %66 to i64
  %68 = getelementptr inbounds [1000 x [256 x i8]], [1000 x [256 x i8]]* %5, i64 0, i64 %67
  %69 = load i32, i32* %4, align 4
  %70 = sext i32 %69 to i64
  %71 = getelementptr inbounds [256 x i8], [256 x i8]* %68, i64 0, i64 %70
  store i8 71, i8* %71, align 1
  br label %72

72:                                               ; preds = %35, %65, %58, %51, %44
  br label %73

73:                                               ; preds = %72
  %74 = load i32, i32* %4, align 4
  %75 = add nsw i32 %74, 1
  store i32 %75, i32* %4, align 4
  br label %25

76:                                               ; preds = %25
  br label %77

77:                                               ; preds = %76
  %78 = load i32, i32* %3, align 4
  %79 = add nsw i32 %78, 1
  store i32 %79, i32* %3, align 4
  br label %20

80:                                               ; preds = %20
  store i32 0, i32* %3, align 4
  br label %81

81:                                               ; preds = %91, %80
  %82 = load i32, i32* %3, align 4
  %83 = load i32, i32* %2, align 4
  %84 = icmp slt i32 %82, %83
  br i1 %84, label %85, label %94

85:                                               ; preds = %81
  %86 = load i32, i32* %3, align 4
  %87 = sext i32 %86 to i64
  %88 = getelementptr inbounds [1000 x [256 x i8]], [1000 x [256 x i8]]* %5, i64 0, i64 %87
  %89 = getelementptr inbounds [256 x i8], [256 x i8]* %88, i64 0, i64 0
  %90 = call i32 (i8*, ...) @printf(i8* getelementptr inbounds ([4 x i8], [4 x i8]* @.str.2, i64 0, i64 0), i8* %89)
  br label %91

91:                                               ; preds = %85
  %92 = load i32, i32* %3, align 4
  %93 = add nsw i32 %92, 1
  store i32 %93, i32* %3, align 4
  br label %81

94:                                               ; preds = %81
  ret i32 0
}

declare dso_local i32 @__isoc99_scanf(i8*, ...) #1

declare dso_local i32 @printf(i8*, ...) #1


!llvm.module.flags = !{!0}
!llvm.ident = !{!1}

!0 = !{i32 1, !"wchar_size", i32 4}
!1 = !{!"clang version 10.0.0-4ubuntu1 "}
